; Function Attrs: mustprogress uwtable
define noundef zeroext i1 @_ZNK32pxrInternal_v0_24__pxrReserved__15SdfAbstractData10HasDictKeyERKNS_7SdfPathERKNS_7TfTokenES6_PNS_20SdfAbstractDataValueE(ptr noundef nonnull align 8 dereferenceable(24) %0, ptr noundef nonnull align 4 dereferenceable(8) %1, ptr noundef nonnull align 8 dereferenceable(8) %2, ptr noundef nonnull align 8 dereferenceable(8) %3, ptr noundef %4) unnamed_addr #1 align 2 personality ptr @__gxx_personality_v0 {
  %6 = alloca %"class.pxrInternal_v0_24__pxrReserved__::VtValue", align 8
  %7 = getelementptr inbounds nuw i8, ptr %6, i64 8
  store ptr null, ptr %7, align 8
  %8 = icmp ne ptr %4, null
  %. = select i1 %8, ptr %6, ptr null
  %9 = load ptr, ptr %0, align 8
  %10 = getelementptr inbounds i8, ptr %9, i64 192
  %11 = load ptr, ptr %10, align 8
  %12 = invoke noundef zeroext i1 %11(ptr noundef nonnull align 8 dereferenceable(24) %0, ptr noundef nonnull align 4 dereferenceable(8) %1, ptr noundef nonnull align 8 dereferenceable(8) %2, ptr noundef nonnull align 8 dereferenceable(8) %3, ptr noundef %.)
          to label %13 unwind label %18

13:                                               ; preds = %5
  %or.cond = and i1 %8, %12
  br i1 %or.cond, label %14, label %20

14:                                               ; preds = %13
  %15 = load ptr, ptr %4, align 8
  %16 = load ptr, ptr %15, align 8
  %17 = invoke noundef zeroext i1 %16(ptr noundef nonnull align 8 dereferenceable(26) %4, ptr noundef nonnull align 8 dereferenceable(16) %6)
          to label %20 unwind label %18

18:                                               ; preds = %14, %5
  %19 = landingpad { ptr, i32 }
          cleanup
  call void @_ZN32pxrInternal_v0_24__pxrReserved__7VtValueD2Ev(ptr noundef nonnull align 8 dereferenceable(16) %6) #20
  resume { ptr, i32 } %19

20:                                               ; preds = %14, %13
  %.0.in = phi i1 [ %12, %13 ], [ %17, %14 ]
  %21 = load ptr, ptr %7, align 8
  %22 = ptrtoint ptr %21 to i64
  %.not.i.i = icmp eq ptr %21, null
  %23 = and i64 %22, 3
  %24 = icmp eq i64 %23, 3
  %or.cond.i.i = or i1 %.not.i.i, %24
  br i1 %or.cond.i.i, label %_ZN32pxrInternal_v0_24__pxrReserved__7VtValueD2Ev.exit, label %25

25:                                               ; preds = %20
  %26 = and i64 %22, -8
  %27 = inttoptr i64 %26 to ptr
  %28 = getelementptr inbounds nuw i8, ptr %27, i64 32
  %29 = load ptr, ptr %28, align 8
  invoke void %29(ptr noundef nonnull align 8 dereferenceable(8) %6)
          to label %_ZN32pxrInternal_v0_24__pxrReserved__7VtValueD2Ev.exit unwind label %30

30:                                               ; preds = %25
  %31 = landingpad { ptr, i32 }
          catch ptr null
  %32 = extractvalue { ptr, i32 } %31, 0
  call void @__clang_call_terminate(ptr %32) #21
  unreachable

_ZN32pxrInternal_v0_24__pxrReserved__7VtValueD2Ev.exit: ; preds = %20, %25
  ret i1 %.0.in
}